target datalayout = "e-m:e-p270:32:32-p271:32:32-p272:64:64-i64:64-i128:128-f80:128-n8:16:32:64-S128"
target triple = "x86_64-pc-linux-gnu"

%union.pthread_mutex_t = type { %struct.__pthread_mutex_s }
%struct.__pthread_mutex_s = type { i32, i32, i32, i32, i32, i16, i16, %struct.__pthread_internal_list }
%struct.__pthread_internal_list = type { ptr, ptr }
%struct.wolfSSL_RefWithMutex = type { %union.pthread_mutex_t, i32 }
%struct.WOLFSSL_CTX = type <{ ptr, %struct.wolfSSL_RefWithMutex, i32, [4 x i8], %struct.WOLFSSL_BUFFER_INFO, %struct.WOLFSSL_BUFFER_INFO, ptr, ptr, i32, [4 x i8], ptr, i8, i8, [2 x i8], i32, i32, [4 x i8], ptr, ptr, ptr, i8, i16, i8, i8, i8, i16, i16, i16, i16, [2 x i8], i64, ptr, ptr, ptr, ptr, i32, i32, i16, [2 x i8], i32, [10 x i16], i8, [3 x i8], ptr, ptr, i32, [4 x i8], ptr, i8, [7 x i8] }>
%struct.WOLFSSL_BUFFER_INFO = type { ptr, i32 }
%struct.ReadDirCtx = type { ptr, ptr, %struct.stat, [261 x i8] }
%struct.stat = type { i64, i64, i64, i32, i32, i32, i32, i64, i64, i64, i64, %struct.timespec, %struct.timespec, %struct.timespec, [3 x i64] }
%struct.timespec = type { i64, i64 }

; Function Attrs: nounwind uwtable
define internal i32 @wolfssl_ctx_load_path_file(ptr noundef %0, ptr noundef %1, i32 noundef %2, i32 noundef %3, ptr noundef %4, ptr noundef %5) #0 {
  %7 = alloca ptr, align 8
  %8 = alloca ptr, align 8
  %9 = alloca i32, align 4
  %10 = alloca i32, align 4
  %11 = alloca ptr, align 8
  %12 = alloca ptr, align 8
  %13 = alloca i32, align 4
  %14 = alloca i64, align 8
  store ptr %0, ptr %7, align 8, !tbaa !24
  store ptr %1, ptr %8, align 8, !tbaa !21
  store i32 %2, ptr %9, align 4, !tbaa !7
  store i32 %3, ptr %10, align 4, !tbaa !7
  store ptr %4, ptr %11, align 8, !tbaa !92
  store ptr %5, ptr %12, align 8, !tbaa !92
  call void @llvm.lifetime.start.p0(i64 4, ptr %13) #9
  %15 = load ptr, ptr %7, align 8, !tbaa !24
  %16 = load ptr, ptr %8, align 8, !tbaa !21
  %17 = load i32, ptr %9, align 4, !tbaa !7
  %18 = call i32 @ProcessFile(ptr noundef %15, ptr noundef %16, i32 noundef 1, i32 noundef 6, ptr noundef null, i32 noundef 0, ptr noundef null, i32 noundef %17)
  store i32 %18, ptr %13, align 4, !tbaa !7
  %19 = load i32, ptr %13, align 4, !tbaa !7
  %20 = icmp ne i32 %19, 1
  br i1 %20, label %21, label %41

21:                                               ; preds = %6
  %22 = load i32, ptr %10, align 4, !tbaa !7
  %23 = and i32 %22, 1
  %24 = icmp ne i32 %23, 0
  br i1 %24, label %32, label %25

25:                                               ; preds = %21
  %26 = load i32, ptr %10, align 4, !tbaa !7
  %27 = and i32 %26, 4
  %28 = icmp ne i32 %27, 0
  br i1 %28, label %29, label %33

29:                                               ; preds = %25
  %30 = load i32, ptr %13, align 4, !tbaa !7
  %31 = icmp eq i32 %30, -162
  br i1 %31, label %32, label %33

32:                                               ; preds = %29, %21
  call void @llvm.lifetime.start.p0(i64 8, ptr %14) #9
  store i64 0, ptr %14, align 8, !tbaa !22
  call void @llvm.lifetime.end.p0(i64 8, ptr %14) #9
  br label %40

33:                                               ; preds = %29, %25
  br label %34

34:                                               ; preds = %33
  br label %35

35:                                               ; preds = %34
  br label %36

36:                                               ; preds = %35
  %37 = load ptr, ptr %11, align 8, !tbaa !92
  %38 = load i32, ptr %37, align 4, !tbaa !7
  %39 = add nsw i32 %38, 1
  store i32 %39, ptr %37, align 4, !tbaa !7
  br label %40

40:                                               ; preds = %36, %32
  br label %45

41:                                               ; preds = %6
  %42 = load ptr, ptr %12, align 8, !tbaa !92
  %43 = load i32, ptr %42, align 4, !tbaa !7
  %44 = add nsw i32 %43, 1
  store i32 %44, ptr %42, align 4, !tbaa !7
  br label %45

45:                                               ; preds = %41, %40
  %46 = load i32, ptr %13, align 4, !tbaa !7
  call void @llvm.lifetime.end.p0(i64 4, ptr %13) #9
  ret i32 %46
}

; Function Attrs: nounwind uwtable
define internal i32 @wolfssl_ctx_load_path(ptr noundef %0, ptr noundef %1, i32 noundef %2, i32 noundef %3, i32 noundef %4) #0 {
  %6 = alloca ptr, align 8
  %7 = alloca ptr, align 8
  %8 = alloca i32, align 4
  %9 = alloca i32, align 4
  %10 = alloca i32, align 4
  %11 = alloca i32, align 4
  %12 = alloca ptr, align 8
  %13 = alloca i32, align 4
  %14 = alloca i32, align 4
  %15 = alloca [1 x %struct.ReadDirCtx], align 16
  store ptr %0, ptr %6, align 8, !tbaa !24
  store ptr %1, ptr %7, align 8, !tbaa !21
  store i32 %2, ptr %8, align 4, !tbaa !7
  store i32 %3, ptr %9, align 4, !tbaa !7
  store i32 %4, ptr %10, align 4, !tbaa !7
  call void @llvm.lifetime.start.p0(i64 4, ptr %11) #9
  store i32 1, ptr %11, align 4, !tbaa !7
  call void @llvm.lifetime.start.p0(i64 8, ptr %12) #9
  store ptr null, ptr %12, align 8, !tbaa !21
  call void @llvm.lifetime.start.p0(i64 4, ptr %13) #9
  call void @llvm.lifetime.start.p0(i64 4, ptr %14) #9
  store i32 0, ptr %14, align 4, !tbaa !7
  call void @llvm.lifetime.start.p0(i64 424, ptr %15) #9
  %16 = load i32, ptr %11, align 4, !tbaa !7
  %17 = icmp eq i32 %16, 1
  br i1 %17, label %18, label %58

18:                                               ; preds = %5
  %19 = getelementptr inbounds [1 x %struct.ReadDirCtx], ptr %15, i64 0, i64 0
  %20 = load ptr, ptr %7, align 8, !tbaa !21
  %21 = call i32 @wc_ReadDirFirst(ptr noundef %19, ptr noundef %20, ptr noundef %12)
  store i32 %21, ptr %13, align 4, !tbaa !7
  br label %22

22:                                               ; preds = %33, %18
  %23 = load i32, ptr %13, align 4, !tbaa !7
  %24 = icmp eq i32 %23, 0
  br i1 %24, label %25, label %28

25:                                               ; preds = %22
  %26 = load ptr, ptr %12, align 8, !tbaa !21
  %27 = icmp ne ptr %26, null
  br label %28

28:                                               ; preds = %25, %22
  %29 = phi i1 [ false, %22 ], [ %27, %25 ]
  br i1 %29, label %30, label %42

30:                                               ; preds = %28
  br label %31

31:                                               ; preds = %30
  br label %32

32:                                               ; preds = %31
  br label %33

33:                                               ; preds = %32
  %34 = load ptr, ptr %6, align 8, !tbaa !24
  %35 = load ptr, ptr %12, align 8, !tbaa !21
  %36 = load i32, ptr %9, align 4, !tbaa !7
  %37 = load i32, ptr %8, align 4, !tbaa !7
  %38 = call i32 @wolfssl_ctx_load_path_file(ptr noundef %34, ptr noundef %35, i32 noundef %36, i32 noundef %37, ptr noundef %14, ptr noundef %10)
  store i32 %38, ptr %11, align 4, !tbaa !7
  %39 = getelementptr inbounds [1 x %struct.ReadDirCtx], ptr %15, i64 0, i64 0
  %40 = load ptr, ptr %7, align 8, !tbaa !21
  %41 = call i32 @wc_ReadDirNext(ptr noundef %39, ptr noundef %40, ptr noundef %12)
  store i32 %41, ptr %13, align 4, !tbaa !7
  br label %22, !llvm.loop !234

42:                                               ; preds = %28
  %43 = getelementptr inbounds [1 x %struct.ReadDirCtx], ptr %15, i64 0, i64 0
  call void @wc_ReadDirClose(ptr noundef %43)
  %44 = load i32, ptr %13, align 4, !tbaa !7
  %45 = icmp ne i32 %44, -1
  br i1 %45, label %46, label %48

46:                                               ; preds = %42
  %47 = load i32, ptr %13, align 4, !tbaa !7
  store i32 %47, ptr %11, align 4, !tbaa !7
  br label %57

48:                                               ; preds = %42
  %49 = load i32, ptr %10, align 4, !tbaa !7
  %50 = icmp eq i32 %49, 0
  br i1 %50, label %54, label %51

51:                                               ; preds = %48
  %52 = load i32, ptr %14, align 4, !tbaa !7
  %53 = icmp sgt i32 %52, 0
  br i1 %53, label %54, label %55

54:                                               ; preds = %51, %48
  store i32 0, ptr %11, align 4, !tbaa !7
  br label %56

55:                                               ; preds = %51
  store i32 1, ptr %11, align 4, !tbaa !7
  br label %56

56:                                               ; preds = %55, %54
  br label %57

57:                                               ; preds = %56, %46
  br label %58

58:                                               ; preds = %57, %5
  %59 = load i32, ptr %11, align 4, !tbaa !7
  call void @llvm.lifetime.end.p0(i64 424, ptr %15) #9
  call void @llvm.lifetime.end.p0(i64 4, ptr %14) #9
  call void @llvm.lifetime.end.p0(i64 4, ptr %13) #9
  call void @llvm.lifetime.end.p0(i64 8, ptr %12) #9
  call void @llvm.lifetime.end.p0(i64 4, ptr %11) #9
  ret i32 %59
}

; Function Attrs: nounwind uwtable
define i32 @wolfSSL_CTX_load_verify_locations_ex(ptr noundef %0, ptr noundef %1, ptr noundef %2, i32 noundef %3) #0 {
  %5 = alloca ptr, align 8
  %6 = alloca ptr, align 8
  %7 = alloca ptr, align 8
  %8 = alloca i32, align 4
  %9 = alloca i32, align 4
  %10 = alloca i32, align 4
  %11 = alloca i32, align 4
  store ptr %0, ptr %5, align 8, !tbaa !24
  store ptr %1, ptr %6, align 8, !tbaa !21
  store ptr %2, ptr %7, align 8, !tbaa !21
  store i32 %3, ptr %8, align 4, !tbaa !7
  call void @llvm.lifetime.start.p0(i64 4, ptr %9) #9
  store i32 1, ptr %9, align 4, !tbaa !7
  call void @llvm.lifetime.start.p0(i64 4, ptr %10) #9
  store i32 0, ptr %10, align 4, !tbaa !7
  call void @llvm.lifetime.start.p0(i64 4, ptr %11) #9
  store i32 512, ptr %11, align 4, !tbaa !7
  br label %12

12:                                               ; preds = %4
  br label %13

13:                                               ; preds = %12
  br label %14

14:                                               ; preds = %13
  %15 = load ptr, ptr %5, align 8, !tbaa !24
  %16 = icmp eq ptr %15, null
  br i1 %16, label %23, label %17

17:                                               ; preds = %14
  %18 = load ptr, ptr %6, align 8, !tbaa !21
  %19 = icmp eq ptr %18, null
  br i1 %19, label %20, label %24

20:                                               ; preds = %17
  %21 = load ptr, ptr %7, align 8, !tbaa !21
  %22 = icmp eq ptr %21, null
  br i1 %22, label %23, label %24

23:                                               ; preds = %20, %14
  store i32 0, ptr %9, align 4, !tbaa !7
  br label %24

24:                                               ; preds = %23, %20, %17
  %25 = load i32, ptr %9, align 4, !tbaa !7
  %26 = icmp eq i32 %25, 1
  br i1 %26, label %27, label %61

27:                                               ; preds = %24
  %28 = load ptr, ptr %5, align 8, !tbaa !24
  %29 = icmp ne ptr %28, null
  br i1 %29, label %30, label %39

30:                                               ; preds = %27
  %31 = load ptr, ptr %5, align 8, !tbaa !24
  %32 = getelementptr inbounds nuw %struct.WOLFSSL_CTX, ptr %31, i32 0, i32 21
  %33 = load i16, ptr %32, align 1
  %34 = lshr i16 %33, 1
  %35 = and i16 %34, 1
  %36 = trunc i16 %35 to i8
  %37 = zext i8 %36 to i32
  %38 = icmp ne i32 %37, 0
  br label %39

39:                                               ; preds = %30, %27
  %40 = phi i1 [ false, %27 ], [ %38, %30 ]
  %41 = select i1 %40, i32 0, i32 1
  store i32 %41, ptr %11, align 4, !tbaa !7
  %42 = load i32, ptr %8, align 4, !tbaa !7
  %43 = and i32 %42, 2
  %44 = icmp ne i32 %43, 0
  br i1 %44, label %45, label %46

45:                                               ; preds = %39
  store i32 5, ptr %11, align 4, !tbaa !7
  br label %46

46:                                               ; preds = %45, %39
  %47 = load ptr, ptr %6, align 8, !tbaa !21
  %48 = icmp ne ptr %47, null
  br i1 %48, label %49, label %60

49:                                               ; preds = %46
  %50 = load ptr, ptr %5, align 8, !tbaa !24
  %51 = load ptr, ptr %6, align 8, !tbaa !21
  %52 = load i32, ptr %11, align 4, !tbaa !7
  %53 = call i32 @ProcessFile(ptr noundef %50, ptr noundef %51, i32 noundef 1, i32 noundef 6, ptr noundef null, i32 noundef 0, ptr noundef null, i32 noundef %52)
  store i32 %53, ptr %9, align 4, !tbaa !7
  %54 = load i32, ptr %9, align 4, !tbaa !7
  %55 = icmp eq i32 %54, 1
  br i1 %55, label %56, label %59

56:                                               ; preds = %49
  %57 = load i32, ptr %10, align 4, !tbaa !7
  %58 = add nsw i32 %57, 1
  store i32 %58, ptr %10, align 4, !tbaa !7
  br label %59

59:                                               ; preds = %56, %49
  br label %60

60:                                               ; preds = %59, %46
  br label %61

61:                                               ; preds = %60, %24
  %62 = load i32, ptr %9, align 4, !tbaa !7
  %63 = icmp eq i32 %62, 1
  br i1 %63, label %64, label %74

64:                                               ; preds = %61
  %65 = load ptr, ptr %7, align 8, !tbaa !21
  %66 = icmp ne ptr %65, null
  br i1 %66, label %67, label %74

67:                                               ; preds = %64
  %68 = load ptr, ptr %5, align 8, !tbaa !24
  %69 = load ptr, ptr %7, align 8, !tbaa !21
  %70 = load i32, ptr %8, align 4, !tbaa !7
  %71 = load i32, ptr %11, align 4, !tbaa !7
  %72 = load i32, ptr %10, align 4, !tbaa !7
  %73 = call i32 @wolfssl_ctx_load_path(ptr noundef %68, ptr noundef %69, i32 noundef %70, i32 noundef %71, i32 noundef %72)
  store i32 %73, ptr %9, align 4, !tbaa !7
  br label %74

74:                                               ; preds = %67, %64, %61
  %75 = load i32, ptr %9, align 4, !tbaa !7
  call void @llvm.lifetime.end.p0(i64 4, ptr %11) #9
  call void @llvm.lifetime.end.p0(i64 4, ptr %10) #9
  call void @llvm.lifetime.end.p0(i64 4, ptr %9) #9
  ret i32 %75
}