; Function Attrs: nounwind uwtable
define i32 @wolfSSL_CTX_load_verify_locations_ex(ptr noundef %0, ptr noundef captures(address_is_null) %1, ptr noundef %2, i32 noundef %3) local_unnamed_addr #0 {
  %5 = alloca i32, align 4
  %6 = alloca ptr, align 8
  %7 = alloca i32, align 4
  %8 = alloca [1 x %struct.ReadDirCtx], align 16
  %9 = icmp eq ptr %0, null
  br i1 %9, label %.critedge.thread, label %10

10:                                               ; preds = %4
  %11 = icmp eq ptr %1, null
  %12 = icmp eq ptr %2, null
  %or.cond = and i1 %11, %12
  br i1 %or.cond, label %.critedge.thread, label %13

13:                                               ; preds = %10
  %14 = getelementptr inbounds nuw i8, ptr %0, i64 169
  %15 = load i16, ptr %14, align 1
  %16 = and i16 %15, 2
  %17 = icmp eq i16 %16, 0
  %18 = zext i1 %17 to i32
  %19 = and i32 %3, 2
  %.not30 = icmp eq i32 %19, 0
  %spec.store.select = select i1 %.not30, i32 %18, i32 5
  br i1 %11, label %.critedge, label %20

20:                                               ; preds = %13
  %21 = tail call i32 @ProcessFile(ptr noundef nonnull %0, ptr noundef nonnull %1, i32 noundef 1, i32 noundef 6, ptr noundef null, i32 noundef 0, ptr poison, i32 noundef %spec.store.select)
  %22 = icmp eq i32 %21, 1
  %spec.select32 = zext i1 %22 to i32
  br label %.critedge

.critedge:                                        ; preds = %20, %13
  %.1 = phi i32 [ 1, %13 ], [ %21, %20 ]
  %.023 = phi i32 [ 0, %13 ], [ %spec.select32, %20 ]
  %23 = icmp eq i32 %.1, 1
  %24 = icmp ne ptr %2, null
  %or.cond3 = and i1 %24, %23
  br i1 %or.cond3, label %25, label %.critedge.thread

25:                                               ; preds = %.critedge
  call void @llvm.lifetime.start.p0(i64 4, ptr nonnull %5)
  store i32 %.023, ptr %5, align 4, !tbaa !3
  call void @llvm.lifetime.start.p0(i64 8, ptr nonnull %6) #22
  store ptr null, ptr %6, align 8, !tbaa !218
  call void @llvm.lifetime.start.p0(i64 4, ptr nonnull %7)
  store i32 0, ptr %7, align 4, !tbaa !3
  call void @llvm.lifetime.start.p0(i64 424, ptr nonnull %8) #22
  %26 = call i32 @wc_ReadDirFirst(ptr noundef nonnull %8, ptr noundef nonnull %2, ptr noundef nonnull %6) #22
  %27 = icmp eq i32 %26, 0
  %28 = load ptr, ptr %6, align 8
  %29 = icmp ne ptr %28, null
  %30 = select i1 %27, i1 %29, i1 false
  br i1 %30, label %.lr.ph.i, label %._crit_edge.i

.lr.ph.i:                                         ; preds = %25
  %31 = and i32 %3, 1
  %.not10.i.i = icmp eq i32 %31, 0
  br i1 %.not10.i.i, label %.lr.ph.split.us.i, label %wolfssl_ctx_load_path_file.exit.i

.lr.ph.split.us.i:                                ; preds = %.lr.ph.i
  %32 = and i32 %3, 4
  %.not16.i = icmp eq i32 %32, 0
  br i1 %.not16.i, label %.lr.ph.split.us.split.us.i, label %.lr.ph.split.us.split.i

.lr.ph.split.us.split.us.i:                       ; preds = %.lr.ph.split.us.i, %.lr.ph.split.us.split.us.i
  %33 = phi ptr [ %39, %.lr.ph.split.us.split.us.i ], [ %28, %.lr.ph.split.us.i ]
  %34 = call i32 @ProcessFile(ptr noundef nonnull %0, ptr noundef nonnull %33, i32 noundef 1, i32 noundef 6, ptr noundef null, i32 noundef 0, ptr poison, i32 noundef range(i32 0, 513) %spec.store.select)
  %.not.i.us.us.i = icmp eq i32 %34, 1
  %spec.select.i = select i1 %.not.i.us.us.i, ptr %5, ptr %7
  %35 = load i32, ptr %spec.select.i, align 4, !tbaa !3
  %36 = add nsw i32 %35, 1
  store i32 %36, ptr %spec.select.i, align 4, !tbaa !3
  %37 = call i32 @wc_ReadDirNext(ptr noundef nonnull %8, ptr noundef nonnull %2, ptr noundef nonnull %6) #22
  %38 = icmp eq i32 %37, 0
  %39 = load ptr, ptr %6, align 8
  %40 = icmp ne ptr %39, null
  %41 = select i1 %38, i1 %40, i1 false
  br i1 %41, label %.lr.ph.split.us.split.us.i, label %._crit_edge.i, !llvm.loop !219

.lr.ph.split.us.split.i:                          ; preds = %.lr.ph.split.us.i, %wolfssl_ctx_load_path_file.exit.us.i
  %42 = phi ptr [ %48, %wolfssl_ctx_load_path_file.exit.us.i ], [ %28, %.lr.ph.split.us.i ]
  %43 = call i32 @ProcessFile(ptr noundef nonnull %0, ptr noundef nonnull %42, i32 noundef 1, i32 noundef 6, ptr noundef null, i32 noundef 0, ptr poison, i32 noundef range(i32 0, 513) %spec.store.select)
  switch i32 %43, label %.sink.split.i.us.fold.split.i [
    i32 1, label %.sink.split.i.us.i
    i32 -162, label %wolfssl_ctx_load_path_file.exit.us.i
  ]

.sink.split.i.us.fold.split.i:                    ; preds = %.lr.ph.split.us.split.i
  br label %.sink.split.i.us.i

.sink.split.i.us.i:                               ; preds = %.sink.split.i.us.fold.split.i, %.lr.ph.split.us.split.i
  %.sink.i.us.i = phi ptr [ %5, %.lr.ph.split.us.split.i ], [ %7, %.sink.split.i.us.fold.split.i ]
  %44 = load i32, ptr %.sink.i.us.i, align 4, !tbaa !3
  %45 = add nsw i32 %44, 1
  store i32 %45, ptr %.sink.i.us.i, align 4, !tbaa !3
  br label %wolfssl_ctx_load_path_file.exit.us.i

wolfssl_ctx_load_path_file.exit.us.i:             ; preds = %.sink.split.i.us.i, %.lr.ph.split.us.split.i
  %46 = call i32 @wc_ReadDirNext(ptr noundef nonnull %8, ptr noundef nonnull %2, ptr noundef nonnull %6) #22
  %47 = icmp eq i32 %46, 0
  %48 = load ptr, ptr %6, align 8
  %49 = icmp ne ptr %48, null
  %50 = select i1 %47, i1 %49, i1 false
  br i1 %50, label %.lr.ph.split.us.split.i, label %._crit_edge.i, !llvm.loop !219

wolfssl_ctx_load_path_file.exit.i:                ; preds = %.lr.ph.i, %wolfssl_ctx_load_path_file.exit.i
  %51 = phi i32 [ %55, %wolfssl_ctx_load_path_file.exit.i ], [ %.023, %.lr.ph.i ]
  %52 = phi ptr [ %58, %wolfssl_ctx_load_path_file.exit.i ], [ %28, %.lr.ph.i ]
  %53 = call i32 @ProcessFile(ptr noundef nonnull %0, ptr noundef nonnull %52, i32 noundef 1, i32 noundef 6, ptr noundef null, i32 noundef 0, ptr poison, i32 noundef range(i32 0, 513) %spec.store.select)
  %.not.i.i = icmp eq i32 %53, 1
  %54 = zext i1 %.not.i.i to i32
  %55 = add nuw nsw i32 %51, %54
  %56 = call i32 @wc_ReadDirNext(ptr noundef nonnull %8, ptr noundef nonnull %2, ptr noundef nonnull %6) #22
  %57 = icmp eq i32 %56, 0
  %58 = load ptr, ptr %6, align 8
  %59 = icmp ne ptr %58, null
  %60 = select i1 %57, i1 %59, i1 false
  br i1 %60, label %wolfssl_ctx_load_path_file.exit.i, label %._crit_edge.split.i, !llvm.loop !219

._crit_edge.split.i:                              ; preds = %wolfssl_ctx_load_path_file.exit.i
  store i32 %55, ptr %5, align 4
  br label %._crit_edge.i

._crit_edge.i:                                    ; preds = %wolfssl_ctx_load_path_file.exit.us.i, %.lr.ph.split.us.split.us.i, %._crit_edge.split.i, %25
  %.0.lcssa.i = phi i32 [ %26, %25 ], [ %56, %._crit_edge.split.i ], [ %37, %.lr.ph.split.us.split.us.i ], [ %46, %wolfssl_ctx_load_path_file.exit.us.i ]
  call void @wc_ReadDirClose(ptr noundef nonnull %8) #22
  %.not.i = icmp eq i32 %.0.lcssa.i, -1
  br i1 %.not.i, label %61, label %wolfssl_ctx_load_path.exit

61:                                               ; preds = %._crit_edge.i
  %.0..0..0..0..0.12.i = load i32, ptr %5, align 4, !tbaa !3
  %62 = icmp ne i32 %.0..0..0..0..0.12.i, 0
  %.0..0..0..0..0..i = load i32, ptr %7, align 4
  %63 = icmp slt i32 %.0..0..0..0..0..i, 1
  %or.cond.not.i = select i1 %62, i1 %63, i1 false
  %..i = zext i1 %or.cond.not.i to i32
  br label %wolfssl_ctx_load_path.exit

wolfssl_ctx_load_path.exit:                       ; preds = %._crit_edge.i, %61
  %.010.i = phi i32 [ %.0.lcssa.i, %._crit_edge.i ], [ %..i, %61 ]
  call void @llvm.lifetime.end.p0(i64 424, ptr nonnull %8) #22
  call void @llvm.lifetime.end.p0(i64 4, ptr nonnull %7)
  call void @llvm.lifetime.end.p0(i64 8, ptr nonnull %6) #22
  call void @llvm.lifetime.end.p0(i64 4, ptr nonnull %5)
  br label %.critedge.thread

.critedge.thread:                                 ; preds = %4, %10, %wolfssl_ctx_load_path.exit, %.critedge
  %.2 = phi i32 [ %.010.i, %wolfssl_ctx_load_path.exit ], [ %.1, %.critedge ], [ 0, %10 ], [ 0, %4 ]
  ret i32 %.2
}